; Function Attrs: mustprogress uwtable
define void @_ZN3nix19PosixSourceAccessor16assertNoSymlinksENS_9CanonPathE(ptr noundef nonnull align 8 dereferenceable(56) %0, ptr noundef %1) local_unnamed_addr #4 align 2 personality ptr @__gxx_personality_v0 {
  %3 = alloca %"class.std::optional.35", align 8
  %4 = alloca %"class.std::__cxx11::basic_string", align 8
  %5 = alloca %"class.std::allocator", align 1
  %6 = alloca %"class.std::__cxx11::basic_string", align 8
  %7 = getelementptr inbounds i8, ptr %1, i64 8
  %8 = load i64, ptr %7, align 8
  %9 = icmp ult i64 %8, 2
  br i1 %9, label %._crit_edge, label %.lr.ph

.lr.ph:                                           ; preds = %2
  %10 = getelementptr inbounds i8, ptr %3, i64 144
  %11 = getelementptr inbounds i8, ptr %3, i64 24
  br label %12

12:                                               ; preds = %.lr.ph, %38
  call void @_ZN3nix19PosixSourceAccessor11cachedLstatERKNS_9CanonPathE(ptr dead_on_unwind nonnull writable sret(%"class.std::optional.35") align 8 %3, ptr noundef nonnull align 8 dereferenceable(56) %0, ptr noundef nonnull align 8 dereferenceable(32) %1)
  %13 = load i8, ptr %10, align 8
  %14 = and i8 %13, 1
  %.not = icmp eq i8 %14, 0
  br i1 %.not, label %38, label %15

15:                                               ; preds = %12
  %16 = load i32, ptr %11, align 8
  %17 = and i32 %16, 61440
  %18 = icmp eq i32 %17, 40960
  br i1 %18, label %19, label %38

19:                                               ; preds = %15
  %20 = call ptr @__cxa_allocate_exception(i64 376) #27
  call void @_ZNSaIcEC1Ev(ptr noundef nonnull align 1 dereferenceable(1) %5) #27
  invoke void @_ZNSt7__cxx1112basic_stringIcSt11char_traitsIcESaIcEEC2IS3_EEPKcRKS3_(ptr noundef nonnull align 8 dereferenceable(32) %4, ptr noundef nonnull @.str.8, ptr noundef nonnull align 1 dereferenceable(1) %5)
          to label %21 unwind label %.thread

21:                                               ; preds = %19
  %22 = load ptr, ptr %0, align 8
  %23 = getelementptr i8, ptr %22, i64 -24
  %24 = load i64, ptr %23, align 8
  %25 = getelementptr inbounds i8, ptr %0, i64 %24
  %26 = load ptr, ptr %25, align 8
  %27 = getelementptr inbounds i8, ptr %26, i64 80
  %28 = load ptr, ptr %27, align 8
  invoke void %28(ptr dead_on_unwind nonnull writable sret(%"class.std::__cxx11::basic_string") align 8 %6, ptr noundef nonnull align 8 dereferenceable(80) %25, ptr noundef nonnull align 8 dereferenceable(32) %1)
          to label %29 unwind label %32

29:                                               ; preds = %21
  invoke void @_ZN3nix5ErrorCI2NS_9BaseErrorEIJNSt7__cxx1112basic_stringIcSt11char_traitsIcESaIcEEEEEERKS6_DpRKT_(ptr noundef nonnull align 8 dereferenceable(376) %20, ptr noundef nonnull align 8 dereferenceable(32) %4, ptr noundef nonnull align 8 dereferenceable(32) %6)
          to label %30 unwind label %34

30:                                               ; preds = %29
  invoke void @__cxa_throw(ptr nonnull %20, ptr nonnull @_ZTIN3nix5ErrorE, ptr nonnull @_ZN3nix5ErrorD2Ev) #31
          to label %42 unwind label %34

.thread:                                          ; preds = %19
  %31 = landingpad { ptr, i32 }
          cleanup
  call void @_ZNSaIcED1Ev(ptr noundef nonnull align 1 dereferenceable(1) %5) #27
  br label %37

32:                                               ; preds = %21
  %33 = landingpad { ptr, i32 }
          cleanup
  br label %36

34:                                               ; preds = %30, %29
  %.0 = phi i1 [ false, %30 ], [ true, %29 ]
  %35 = landingpad { ptr, i32 }
          cleanup
  call void @_ZNSt7__cxx1112basic_stringIcSt11char_traitsIcESaIcEED2Ev(ptr noundef nonnull align 8 dereferenceable(32) %6) #27
  br label %36

36:                                               ; preds = %32, %34
  %.pn = phi { ptr, i32 } [ %35, %34 ], [ %33, %32 ]
  %.1 = phi i1 [ %.0, %34 ], [ true, %32 ]
  call void @_ZNSt7__cxx1112basic_stringIcSt11char_traitsIcESaIcEED2Ev(ptr noundef nonnull align 8 dereferenceable(32) %4) #27
  call void @_ZNSaIcED1Ev(ptr noundef nonnull align 1 dereferenceable(1) %5) #27
  br i1 %.1, label %37, label %41

37:                                               ; preds = %.thread, %36
  %.pn.pn12 = phi { ptr, i32 } [ %31, %.thread ], [ %.pn, %36 ]
  call void @__cxa_free_exception(ptr %20) #27
  br label %41

38:                                               ; preds = %15, %12
  call void @_ZN3nix9CanonPath3popEv(ptr noundef nonnull align 8 dereferenceable(32) %1)
  %39 = load i64, ptr %7, align 8
  %40 = icmp ult i64 %39, 2
  br i1 %40, label %._crit_edge, label %12, !llvm.loop !6

._crit_edge:                                      ; preds = %38, %2
  ret void

41:                                               ; preds = %36, %37
  %.pn.pn11 = phi { ptr, i32 } [ %.pn, %36 ], [ %.pn.pn12, %37 ]
  resume { ptr, i32 } %.pn.pn11

42:                                               ; preds = %30
  unreachable
}